target datalayout = "e-m:e-p270:32:32-p271:32:32-p272:64:64-i64:64-i128:128-f80:128-n8:16:32:64-S128"
target triple = "x86_64-pc-linux-gnu"

%struct.rax = type { ptr, i64, i64, [0 x ptr] }

@.str.1 = private unnamed_addr constant [6 x i8] c"rax.c\00", align 1
@.str.4 = private unnamed_addr constant [19 x i8] c"rax->numnodes == 0\00", align 1

; Function Attrs: nounwind uwtable
define dso_local void @raxFreeWithCbAndContext(ptr noundef %0, ptr noundef %1, ptr noundef %2) #0 {
  %4 = alloca ptr, align 8
  %5 = alloca ptr, align 8
  %6 = alloca ptr, align 8
  store ptr %0, ptr %4, align 8, !tbaa !14
  store ptr %1, ptr %5, align 8, !tbaa !16
  store ptr %2, ptr %6, align 8, !tbaa !16
  %7 = load ptr, ptr %4, align 8, !tbaa !14
  %8 = load ptr, ptr %4, align 8, !tbaa !14
  %9 = getelementptr inbounds nuw %struct.rax, ptr %8, i32 0, i32 0
  %10 = load ptr, ptr %9, align 8, !tbaa !11
  %11 = load ptr, ptr %5, align 8, !tbaa !16
  %12 = load ptr, ptr %6, align 8, !tbaa !16
  call void @raxRecursiveFreeWithCtx(ptr noundef %7, ptr noundef %10, ptr noundef %11, ptr noundef %12)
  %13 = load ptr, ptr %4, align 8, !tbaa !14
  %14 = getelementptr inbounds nuw %struct.rax, ptr %13, i32 0, i32 2
  %15 = load i64, ptr %14, align 8, !tbaa !9
  %16 = icmp eq i64 %15, 0
  %17 = xor i1 %16, true
  %18 = xor i1 %17, true
  %19 = zext i1 %18 to i32
  %20 = sext i32 %19 to i64
  %21 = call i64 @llvm.expect.i64(i64 %20, i64 1)
  %22 = icmp ne i64 %21, 0
  br i1 %22, label %23, label %24

23:                                               ; preds = %3
  br label %26

24:                                               ; preds = %3
  call void @_serverAssert(ptr noundef @.str.4, ptr noundef @.str.1, i32 noundef 1250)
  call void @abort() #16
  unreachable

25:                                               ; No predecessors!
  br label %26

26:                                               ; preds = %25, %23
  %27 = load ptr, ptr %4, align 8, !tbaa !14
  call void @zfree(ptr noundef %27)
  ret void
}