; Function Attrs: nounwind uwtable
define dso_local void @raxFreeWithCbAndContext(ptr noundef %0, ptr noundef captures(address_is_null) %1, ptr noundef %2) local_unnamed_addr #1 {
  %4 = load ptr, ptr %0, align 8, !tbaa !11
  tail call void @raxRecursiveFreeWithCtx(ptr noundef nonnull %0, ptr noundef %4, ptr noundef %1, ptr noundef %2)
  %5 = getelementptr inbounds nuw i8, ptr %0, i64 16
  %6 = load i64, ptr %5, align 8, !tbaa !9
  %7 = icmp eq i64 %6, 0
  br i1 %7, label %9, label %8, !prof !14

8:                                                ; preds = %3
  tail call void @_serverAssert(ptr noundef nonnull @.str.4, ptr noundef nonnull @.str.1, i32 noundef 1250) #26
  tail call void @abort() #28
  unreachable

9:                                                ; preds = %3
  tail call void @zfree(ptr noundef nonnull %0) #26
  ret void
}